target datalayout = "e-m:e-p270:32:32-p271:32:32-p272:64:64-i64:64-i128:128-f80:128-n8:16:32:64-S128"
target triple = "x86_64-pc-linux-gnu"

%struct.DdManager = type { %struct.DdNode, ptr, ptr, ptr, ptr, ptr, ptr, ptr, i32, i32, double, double, double, i32, i32, i32, i32, i32, i32, ptr, ptr, %struct.DdSubtable, i32, i32, i32, i32, i32, i32, i32, double, i32, i32, i32, ptr, i64, double, i32, ptr, ptr, ptr, ptr, ptr, ptr, ptr, i32, ptr, ptr, ptr, ptr, ptr, ptr, i32, i32, i32, double, i32, i32, i32, i32, double, double, i32, i32, i32, i32, i32, i32, i32, i32, i32, ptr, ptr, i32, i32, i32, i32, i32, i32, ptr, ptr, ptr, ptr, ptr, ptr, ptr, ptr, i32, i64, i64, i64, i32, i64, i64, double, double, double, double, double, double, i32, ptr, ptr, i64 }
%struct.DdNode = type { i32, i32, ptr, %union.anon, i64 }
%union.anon = type { %struct.DdChildren }
%struct.DdChildren = type { ptr, ptr }
%struct.DdSubtable = type { ptr, i32, i32, i32, i32, i32, i32, i32, i32, i32, i32, i32 }
%struct.DdCache = type { ptr, ptr, i64, ptr, i32 }

@Extra_UtilMMoutOfMemory = external global ptr, align 8

; Function Attrs: nounwind uwtable
define void @cuddCacheResize(ptr noundef %0) #0 {
  %2 = alloca ptr, align 8
  %3 = alloca ptr, align 8
  %4 = alloca ptr, align 8
  %5 = alloca ptr, align 8
  %6 = alloca ptr, align 8
  %7 = alloca ptr, align 8
  %8 = alloca i32, align 4
  %9 = alloca i32, align 4
  %10 = alloca i32, align 4
  %11 = alloca i32, align 4
  %12 = alloca i32, align 4
  %13 = alloca double, align 8
  %14 = alloca i32, align 4
  %15 = alloca ptr, align 8
  %16 = alloca i64, align 8
  %17 = alloca ptr, align 8
  %18 = alloca i32, align 4
  store ptr %0, ptr %2, align 8, !tbaa !3
  call void @llvm.lifetime.start.p0(i64 8, ptr %3) #6
  call void @llvm.lifetime.start.p0(i64 8, ptr %4) #6
  call void @llvm.lifetime.start.p0(i64 8, ptr %5) #6
  call void @llvm.lifetime.start.p0(i64 8, ptr %6) #6
  call void @llvm.lifetime.start.p0(i64 8, ptr %7) #6
  call void @llvm.lifetime.start.p0(i64 4, ptr %8) #6
  call void @llvm.lifetime.start.p0(i64 4, ptr %9) #6
  call void @llvm.lifetime.start.p0(i64 4, ptr %10) #6
  call void @llvm.lifetime.start.p0(i64 4, ptr %11) #6
  call void @llvm.lifetime.start.p0(i64 4, ptr %12) #6
  call void @llvm.lifetime.start.p0(i64 8, ptr %13) #6
  call void @llvm.lifetime.start.p0(i64 4, ptr %14) #6
  store i32 0, ptr %14, align 4, !tbaa !8
  call void @llvm.lifetime.start.p0(i64 8, ptr %15) #6
  call void @llvm.lifetime.start.p0(i64 8, ptr %16) #6
  call void @llvm.lifetime.start.p0(i64 8, ptr %17) #6
  %19 = load ptr, ptr %2, align 8, !tbaa !3
  %20 = getelementptr inbounds nuw %struct.DdManager, ptr %19, i32 0, i32 7
  %21 = load ptr, ptr %20, align 8, !tbaa !31
  store ptr %21, ptr %4, align 8, !tbaa !54
  %22 = load ptr, ptr %2, align 8, !tbaa !3
  %23 = getelementptr inbounds nuw %struct.DdManager, ptr %22, i32 0, i32 6
  %24 = load ptr, ptr %23, align 8, !tbaa !27
  store ptr %24, ptr %5, align 8, !tbaa !54
  %25 = load ptr, ptr %2, align 8, !tbaa !3
  %26 = getelementptr inbounds nuw %struct.DdManager, ptr %25, i32 0, i32 8
  %27 = load i32, ptr %26, align 8, !tbaa !33
  store i32 %27, ptr %12, align 4, !tbaa !8
  %28 = load i32, ptr %12, align 4, !tbaa !8
  %29 = shl i32 %28, 1
  %30 = load ptr, ptr %2, align 8, !tbaa !3
  %31 = getelementptr inbounds nuw %struct.DdManager, ptr %30, i32 0, i32 8
  store i32 %29, ptr %31, align 8, !tbaa !33
  store i32 %29, ptr %11, align 4, !tbaa !8
  %32 = load ptr, ptr @Extra_UtilMMoutOfMemory, align 8, !tbaa !58
  store ptr %32, ptr %15, align 8, !tbaa !58
  store ptr @Cudd_OutOfMem, ptr @Extra_UtilMMoutOfMemory, align 8, !tbaa !58
  %33 = load i32, ptr %11, align 4, !tbaa !8
  %34 = add i32 %33, 2
  %35 = zext i32 %34 to i64
  %36 = mul i64 40, %35
  %37 = call noalias ptr @malloc(i64 noundef %36) #7
  store ptr %37, ptr %3, align 8, !tbaa !54
  %38 = load ptr, ptr %2, align 8, !tbaa !3
  %39 = getelementptr inbounds nuw %struct.DdManager, ptr %38, i32 0, i32 6
  store ptr %37, ptr %39, align 8, !tbaa !27
  %40 = load ptr, ptr %15, align 8, !tbaa !58
  store ptr %40, ptr @Extra_UtilMMoutOfMemory, align 8, !tbaa !58
  %41 = load ptr, ptr %3, align 8, !tbaa !54
  %42 = icmp eq ptr %41, null
  br i1 %42, label %43, label %59

43:                                               ; preds = %1
  %44 = load i32, ptr %12, align 4, !tbaa !8
  %45 = load ptr, ptr %2, align 8, !tbaa !3
  %46 = getelementptr inbounds nuw %struct.DdManager, ptr %45, i32 0, i32 8
  store i32 %44, ptr %46, align 8, !tbaa !33
  %47 = load ptr, ptr %5, align 8, !tbaa !54
  %48 = load ptr, ptr %2, align 8, !tbaa !3
  %49 = getelementptr inbounds nuw %struct.DdManager, ptr %48, i32 0, i32 6
  store ptr %47, ptr %49, align 8, !tbaa !27
  %50 = load i32, ptr %12, align 4, !tbaa !8
  %51 = sub i32 %50, 1
  %52 = load ptr, ptr %2, align 8, !tbaa !3
  %53 = getelementptr inbounds nuw %struct.DdManager, ptr %52, i32 0, i32 14
  store i32 %51, ptr %53, align 4, !tbaa !35
  %54 = load i32, ptr %12, align 4, !tbaa !8
  %55 = add i32 %54, 1
  %56 = sub nsw i32 0, %55
  %57 = load ptr, ptr %2, align 8, !tbaa !3
  %58 = getelementptr inbounds nuw %struct.DdManager, ptr %57, i32 0, i32 13
  store i32 %56, ptr %58, align 8, !tbaa !36
  store i32 1, ptr %18, align 4
  br label %207

59:                                               ; preds = %1
  %60 = load ptr, ptr %3, align 8, !tbaa !54
  store ptr %60, ptr %17, align 8, !tbaa !29
  %61 = load ptr, ptr %17, align 8, !tbaa !29
  %62 = ptrtoint ptr %61 to i64
  %63 = and i64 %62, 31
  store i64 %63, ptr %16, align 8, !tbaa !30
  %64 = load i64, ptr %16, align 8, !tbaa !30
  %65 = sub i64 32, %64
  %66 = udiv i64 %65, 8
  %67 = load ptr, ptr %17, align 8, !tbaa !29
  %68 = getelementptr inbounds nuw ptr, ptr %67, i64 %66
  store ptr %68, ptr %17, align 8, !tbaa !29
  %69 = load ptr, ptr %17, align 8, !tbaa !29
  store ptr %69, ptr %3, align 8, !tbaa !54
  %70 = load ptr, ptr %2, align 8, !tbaa !3
  %71 = getelementptr inbounds nuw %struct.DdManager, ptr %70, i32 0, i32 7
  store ptr %69, ptr %71, align 8, !tbaa !31
  %72 = load ptr, ptr %2, align 8, !tbaa !3
  %73 = getelementptr inbounds nuw %struct.DdManager, ptr %72, i32 0, i32 9
  %74 = load i32, ptr %73, align 4, !tbaa !34
  %75 = add nsw i32 %74, -1
  store i32 %75, ptr %73, align 4, !tbaa !34
  store i32 %75, ptr %10, align 4, !tbaa !8
  %76 = load i32, ptr %11, align 4, !tbaa !8
  %77 = load i32, ptr %12, align 4, !tbaa !8
  %78 = sub i32 %76, %77
  %79 = zext i32 %78 to i64
  %80 = mul i64 %79, 40
  %81 = load ptr, ptr %2, align 8, !tbaa !3
  %82 = getelementptr inbounds nuw %struct.DdManager, ptr %81, i32 0, i32 87
  %83 = load i64, ptr %82, align 8, !tbaa !32
  %84 = add i64 %83, %80
  store i64 %84, ptr %82, align 8, !tbaa !32
  %85 = load i32, ptr %11, align 4, !tbaa !8
  %86 = load ptr, ptr %2, align 8, !tbaa !3
  %87 = getelementptr inbounds nuw %struct.DdManager, ptr %86, i32 0, i32 13
  %88 = load i32, ptr %87, align 8, !tbaa !36
  %89 = sub i32 %88, %85
  store i32 %89, ptr %87, align 8, !tbaa !36
  store i32 0, ptr %8, align 4, !tbaa !8
  br label %90

90:                                               ; preds = %105, %59
  %91 = load i32, ptr %8, align 4, !tbaa !8
  %92 = load i32, ptr %11, align 4, !tbaa !8
  %93 = icmp ult i32 %91, %92
  br i1 %93, label %94, label %108

94:                                               ; preds = %90
  %95 = load ptr, ptr %3, align 8, !tbaa !54
  %96 = load i32, ptr %8, align 4, !tbaa !8
  %97 = sext i32 %96 to i64
  %98 = getelementptr inbounds %struct.DdCache, ptr %95, i64 %97
  %99 = getelementptr inbounds nuw %struct.DdCache, ptr %98, i32 0, i32 3
  store ptr null, ptr %99, align 8, !tbaa !48
  %100 = load ptr, ptr %3, align 8, !tbaa !54
  %101 = load i32, ptr %8, align 4, !tbaa !8
  %102 = sext i32 %101 to i64
  %103 = getelementptr inbounds %struct.DdCache, ptr %100, i64 %102
  %104 = getelementptr inbounds nuw %struct.DdCache, ptr %103, i32 0, i32 2
  store i64 0, ptr %104, align 8, !tbaa !46
  br label %105

105:                                              ; preds = %94
  %106 = load i32, ptr %8, align 4, !tbaa !8
  %107 = add nsw i32 %106, 1
  store i32 %107, ptr %8, align 4, !tbaa !8
  br label %90, !llvm.loop !60

108:                                              ; preds = %90
  store i32 0, ptr %8, align 4, !tbaa !8
  br label %109

109:                                              ; preds = %160, %108
  %110 = load i32, ptr %8, align 4, !tbaa !8
  %111 = load i32, ptr %12, align 4, !tbaa !8
  %112 = icmp ult i32 %110, %111
  br i1 %112, label %113, label %163

113:                                              ; preds = %109
  %114 = load ptr, ptr %4, align 8, !tbaa !54
  %115 = load i32, ptr %8, align 4, !tbaa !8
  %116 = sext i32 %115 to i64
  %117 = getelementptr inbounds %struct.DdCache, ptr %114, i64 %116
  store ptr %117, ptr %7, align 8, !tbaa !54
  %118 = load ptr, ptr %7, align 8, !tbaa !54
  %119 = getelementptr inbounds nuw %struct.DdCache, ptr %118, i32 0, i32 3
  %120 = load ptr, ptr %119, align 8, !tbaa !48
  %121 = icmp ne ptr %120, null
  br i1 %121, label %122, label %159

122:                                              ; preds = %113
  %123 = load ptr, ptr %7, align 8, !tbaa !54
  %124 = getelementptr inbounds nuw %struct.DdCache, ptr %123, i32 0, i32 4
  %125 = load i32, ptr %124, align 8, !tbaa !57
  %126 = load i32, ptr %10, align 4, !tbaa !8
  %127 = lshr i32 %125, %126
  store i32 %127, ptr %9, align 4, !tbaa !8
  %128 = load ptr, ptr %3, align 8, !tbaa !54
  %129 = load i32, ptr %9, align 4, !tbaa !8
  %130 = sext i32 %129 to i64
  %131 = getelementptr inbounds %struct.DdCache, ptr %128, i64 %130
  store ptr %131, ptr %6, align 8, !tbaa !54
  %132 = load ptr, ptr %7, align 8, !tbaa !54
  %133 = getelementptr inbounds nuw %struct.DdCache, ptr %132, i32 0, i32 0
  %134 = load ptr, ptr %133, align 8, !tbaa !55
  %135 = load ptr, ptr %6, align 8, !tbaa !54
  %136 = getelementptr inbounds nuw %struct.DdCache, ptr %135, i32 0, i32 0
  store ptr %134, ptr %136, align 8, !tbaa !55
  %137 = load ptr, ptr %7, align 8, !tbaa !54
  %138 = getelementptr inbounds nuw %struct.DdCache, ptr %137, i32 0, i32 1
  %139 = load ptr, ptr %138, align 8, !tbaa !56
  %140 = load ptr, ptr %6, align 8, !tbaa !54
  %141 = getelementptr inbounds nuw %struct.DdCache, ptr %140, i32 0, i32 1
  store ptr %139, ptr %141, align 8, !tbaa !56
  %142 = load ptr, ptr %7, align 8, !tbaa !54
  %143 = getelementptr inbounds nuw %struct.DdCache, ptr %142, i32 0, i32 2
  %144 = load i64, ptr %143, align 8, !tbaa !46
  %145 = load ptr, ptr %6, align 8, !tbaa !54
  %146 = getelementptr inbounds nuw %struct.DdCache, ptr %145, i32 0, i32 2
  store i64 %144, ptr %146, align 8, !tbaa !46
  %147 = load ptr, ptr %7, align 8, !tbaa !54
  %148 = getelementptr inbounds nuw %struct.DdCache, ptr %147, i32 0, i32 3
  %149 = load ptr, ptr %148, align 8, !tbaa !48
  %150 = load ptr, ptr %6, align 8, !tbaa !54
  %151 = getelementptr inbounds nuw %struct.DdCache, ptr %150, i32 0, i32 3
  store ptr %149, ptr %151, align 8, !tbaa !48
  %152 = load ptr, ptr %7, align 8, !tbaa !54
  %153 = getelementptr inbounds nuw %struct.DdCache, ptr %152, i32 0, i32 4
  %154 = load i32, ptr %153, align 8, !tbaa !57
  %155 = load ptr, ptr %6, align 8, !tbaa !54
  %156 = getelementptr inbounds nuw %struct.DdCache, ptr %155, i32 0, i32 4
  store i32 %154, ptr %156, align 8, !tbaa !57
  %157 = load i32, ptr %14, align 4, !tbaa !8
  %158 = add nsw i32 %157, 1
  store i32 %158, ptr %14, align 4, !tbaa !8
  br label %159

159:                                              ; preds = %122, %113
  br label %160

160:                                              ; preds = %159
  %161 = load i32, ptr %8, align 4, !tbaa !8
  %162 = add nsw i32 %161, 1
  store i32 %162, ptr %8, align 4, !tbaa !8
  br label %109, !llvm.loop !61

163:                                              ; preds = %109
  %164 = load ptr, ptr %5, align 8, !tbaa !54
  %165 = icmp ne ptr %164, null
  br i1 %165, label %166, label %168

166:                                              ; preds = %163
  %167 = load ptr, ptr %5, align 8, !tbaa !54
  call void @free(ptr noundef %167) #6
  store ptr null, ptr %5, align 8, !tbaa !54
  br label %169

168:                                              ; preds = %163
  br label %169

169:                                              ; preds = %168, %166
  %170 = load i32, ptr %11, align 4, !tbaa !8
  %171 = uitofp i32 %170 to double
  %172 = load ptr, ptr %2, align 8, !tbaa !3
  %173 = getelementptr inbounds nuw %struct.DdManager, ptr %172, i32 0, i32 12
  %174 = load double, ptr %173, align 8, !tbaa !37
  %175 = call double @llvm.fmuladd.f64(double %171, double %174, double 1.000000e+00)
  %176 = fptosi double %175 to i32
  %177 = sitofp i32 %176 to double
  store double %177, ptr %13, align 8, !tbaa !62
  %178 = load ptr, ptr %2, align 8, !tbaa !3
  %179 = getelementptr inbounds nuw %struct.DdManager, ptr %178, i32 0, i32 10
  %180 = load double, ptr %179, align 8, !tbaa !38
  %181 = load double, ptr %13, align 8, !tbaa !62
  %182 = fsub double %180, %181
  %183 = load ptr, ptr %2, align 8, !tbaa !3
  %184 = getelementptr inbounds nuw %struct.DdManager, ptr %183, i32 0, i32 94
  %185 = load double, ptr %184, align 8, !tbaa !41
  %186 = fadd double %185, %182
  store double %186, ptr %184, align 8, !tbaa !41
  %187 = load double, ptr %13, align 8, !tbaa !62
  %188 = load ptr, ptr %2, align 8, !tbaa !3
  %189 = getelementptr inbounds nuw %struct.DdManager, ptr %188, i32 0, i32 10
  store double %187, ptr %189, align 8, !tbaa !38
  %190 = load ptr, ptr %2, align 8, !tbaa !3
  %191 = getelementptr inbounds nuw %struct.DdManager, ptr %190, i32 0, i32 11
  %192 = load double, ptr %191, align 8, !tbaa !39
  %193 = load ptr, ptr %2, align 8, !tbaa !3
  %194 = getelementptr inbounds nuw %struct.DdManager, ptr %193, i32 0, i32 93
  %195 = load double, ptr %194, align 8, !tbaa !40
  %196 = fadd double %195, %192
  store double %196, ptr %194, align 8, !tbaa !40
  %197 = load ptr, ptr %2, align 8, !tbaa !3
  %198 = getelementptr inbounds nuw %struct.DdManager, ptr %197, i32 0, i32 11
  store double 0.000000e+00, ptr %198, align 8, !tbaa !39
  %199 = load ptr, ptr %2, align 8, !tbaa !3
  %200 = getelementptr inbounds nuw %struct.DdManager, ptr %199, i32 0, i32 96
  %201 = load double, ptr %200, align 8, !tbaa !43
  %202 = load i32, ptr %14, align 4, !tbaa !8
  %203 = sitofp i32 %202 to double
  %204 = fsub double %201, %203
  %205 = load ptr, ptr %2, align 8, !tbaa !3
  %206 = getelementptr inbounds nuw %struct.DdManager, ptr %205, i32 0, i32 97
  store double %204, ptr %206, align 8, !tbaa !44
  store i32 0, ptr %18, align 4
  br label %207

207:                                              ; preds = %169, %43
  call void @llvm.lifetime.end.p0(i64 8, ptr %17) #6
  call void @llvm.lifetime.end.p0(i64 8, ptr %16) #6
  call void @llvm.lifetime.end.p0(i64 8, ptr %15) #6
  call void @llvm.lifetime.end.p0(i64 4, ptr %14) #6
  call void @llvm.lifetime.end.p0(i64 8, ptr %13) #6
  call void @llvm.lifetime.end.p0(i64 4, ptr %12) #6
  call void @llvm.lifetime.end.p0(i64 4, ptr %11) #6
  call void @llvm.lifetime.end.p0(i64 4, ptr %10) #6
  call void @llvm.lifetime.end.p0(i64 4, ptr %9) #6
  call void @llvm.lifetime.end.p0(i64 4, ptr %8) #6
  call void @llvm.lifetime.end.p0(i64 8, ptr %7) #6
  call void @llvm.lifetime.end.p0(i64 8, ptr %6) #6
  call void @llvm.lifetime.end.p0(i64 8, ptr %5) #6
  call void @llvm.lifetime.end.p0(i64 8, ptr %4) #6
  call void @llvm.lifetime.end.p0(i64 8, ptr %3) #6
  %208 = load i32, ptr %18, align 4
  switch i32 %208, label %210 [
    i32 0, label %209
    i32 1, label %209
  ]

209:                                              ; preds = %207, %207
  ret void

210:                                              ; preds = %207
  unreachable
}