; Function Attrs: nounwind uwtable
define void @cuddCacheResize(ptr noundef captures(none) %0) local_unnamed_addr #0 {
  %2 = getelementptr inbounds nuw i8, ptr %0, i64 88
  %3 = load ptr, ptr %2, align 8, !tbaa !28
  %4 = getelementptr inbounds nuw i8, ptr %0, i64 80
  %5 = load ptr, ptr %4, align 8, !tbaa !26
  %6 = getelementptr inbounds nuw i8, ptr %0, i64 96
  %7 = load i32, ptr %6, align 8, !tbaa !30
  %8 = shl i32 %7, 1
  store i32 %8, ptr %6, align 8, !tbaa !30
  %9 = load ptr, ptr @Extra_UtilMMoutOfMemory, align 8, !tbaa !50
  %10 = add i32 %8, 2
  %11 = zext i32 %10 to i64
  %12 = mul nuw nsw i64 %11, 40
  %13 = tail call noalias ptr @malloc(i64 noundef %12) #13
  store ptr %13, ptr %4, align 8, !tbaa !26
  store ptr %9, ptr @Extra_UtilMMoutOfMemory, align 8, !tbaa !50
  %14 = icmp eq ptr %13, null
  br i1 %14, label %15, label %20

15:                                               ; preds = %1
  store i32 %7, ptr %6, align 8, !tbaa !30
  store ptr %5, ptr %4, align 8, !tbaa !26
  %16 = add i32 %7, -1
  %17 = getelementptr inbounds nuw i8, ptr %0, i64 132
  store i32 %16, ptr %17, align 4, !tbaa !32
  %18 = xor i32 %7, -1
  %19 = getelementptr inbounds nuw i8, ptr %0, i64 128
  store i32 %18, ptr %19, align 8, !tbaa !33
  br label %81

20:                                               ; preds = %1
  %21 = ptrtoint ptr %13 to i64
  %22 = and i64 %21, 31
  %23 = sub nuw nsw i64 32, %22
  %24 = lshr i64 %23, 3
  %25 = getelementptr inbounds nuw ptr, ptr %13, i64 %24
  store ptr %25, ptr %2, align 8, !tbaa !28
  %26 = getelementptr inbounds nuw i8, ptr %0, i64 100
  %27 = load i32, ptr %26, align 4, !tbaa !31
  %28 = add nsw i32 %27, -1
  store i32 %28, ptr %26, align 4, !tbaa !31
  %29 = zext i32 %7 to i64
  %30 = mul nuw nsw i64 %29, 40
  %31 = getelementptr inbounds nuw i8, ptr %0, i64 632
  %32 = load i64, ptr %31, align 8, !tbaa !29
  %33 = add i64 %32, %30
  store i64 %33, ptr %31, align 8, !tbaa !29
  %34 = getelementptr inbounds nuw i8, ptr %0, i64 128
  %35 = load i32, ptr %34, align 8, !tbaa !33
  %36 = sub i32 %35, %8
  store i32 %36, ptr %34, align 8, !tbaa !33
  %.not81 = icmp eq i32 %8, 0
  br i1 %.not81, label %.preheader, label %.lr.ph.preheader

.lr.ph.preheader:                                 ; preds = %20
  %wide.trip.count = zext i32 %8 to i64
  %invariant.gep = getelementptr inbounds nuw i8, ptr %25, i64 16
  br label %.lr.ph

.preheader:                                       ; preds = %.lr.ph, %20
  %.not82 = icmp eq i32 %7, 0
  br i1 %.not82, label %._crit_edge, label %.lr.ph80

.lr.ph:                                           ; preds = %.lr.ph.preheader, %.lr.ph
  %indvars.iv = phi i64 [ 0, %.lr.ph.preheader ], [ %indvars.iv.next, %.lr.ph ]
  %gep = getelementptr inbounds nuw %struct.DdCache, ptr %invariant.gep, i64 %indvars.iv
  %indvars.iv.next = add nuw nsw i64 %indvars.iv, 1
  %exitcond.not = icmp eq i64 %indvars.iv.next, %wide.trip.count
  tail call void @llvm.memset.p0.i64(ptr noundef nonnull align 8 dereferenceable(16) %gep, i8 0, i64 16, i1 false)
  br i1 %exitcond.not, label %.preheader, label %.lr.ph, !llvm.loop !51

.lr.ph80:                                         ; preds = %.preheader, %56
  %indvars.iv84 = phi i64 [ %indvars.iv.next85, %56 ], [ 0, %.preheader ]
  %.07178 = phi i32 [ %.172, %56 ], [ 0, %.preheader ]
  %37 = getelementptr inbounds nuw %struct.DdCache, ptr %3, i64 %indvars.iv84
  %38 = getelementptr inbounds nuw i8, ptr %37, i64 24
  %39 = load ptr, ptr %38, align 8, !tbaa !41
  %.not76 = icmp eq ptr %39, null
  br i1 %.not76, label %56, label %40

40:                                               ; preds = %.lr.ph80
  %41 = getelementptr inbounds nuw i8, ptr %37, i64 32
  %42 = load i32, ptr %41, align 8, !tbaa !48
  %43 = lshr i32 %42, %28
  %44 = sext i32 %43 to i64
  %45 = getelementptr inbounds %struct.DdCache, ptr %25, i64 %44
  %46 = load ptr, ptr %37, align 8, !tbaa !45
  store ptr %46, ptr %45, align 8, !tbaa !45
  %47 = getelementptr inbounds nuw i8, ptr %37, i64 8
  %48 = load ptr, ptr %47, align 8, !tbaa !46
  %49 = getelementptr inbounds nuw i8, ptr %45, i64 8
  store ptr %48, ptr %49, align 8, !tbaa !46
  %50 = getelementptr inbounds nuw i8, ptr %37, i64 16
  %51 = load i64, ptr %50, align 8, !tbaa !47
  %52 = getelementptr inbounds nuw i8, ptr %45, i64 16
  store i64 %51, ptr %52, align 8, !tbaa !47
  %53 = getelementptr inbounds nuw i8, ptr %45, i64 24
  store ptr %39, ptr %53, align 8, !tbaa !41
  %54 = getelementptr inbounds nuw i8, ptr %45, i64 32
  store i32 %42, ptr %54, align 8, !tbaa !48
  %55 = add nsw i32 %.07178, 1
  br label %56

56:                                               ; preds = %.lr.ph80, %40
  %.172 = phi i32 [ %55, %40 ], [ %.07178, %.lr.ph80 ]
  %indvars.iv.next85 = add nuw nsw i64 %indvars.iv84, 1
  %exitcond88.not = icmp eq i64 %indvars.iv.next85, %29
  br i1 %exitcond88.not, label %._crit_edge.loopexit, label %.lr.ph80, !llvm.loop !52

._crit_edge.loopexit:                             ; preds = %56
  %57 = sitofp i32 %.172 to double
  br label %._crit_edge

._crit_edge:                                      ; preds = %._crit_edge.loopexit, %.preheader
  %.071.lcssa = phi double [ 0.000000e+00, %.preheader ], [ %57, %._crit_edge.loopexit ]
  %.not = icmp eq ptr %5, null
  br i1 %.not, label %59, label %58

58:                                               ; preds = %._crit_edge
  tail call void @free(ptr noundef nonnull %5) #14
  br label %59

59:                                               ; preds = %._crit_edge, %58
  %60 = uitofp i32 %8 to double
  %61 = getelementptr inbounds nuw i8, ptr %0, i64 120
  %62 = load double, ptr %61, align 8, !tbaa !34
  %63 = tail call double @llvm.fmuladd.f64(double %60, double %62, double 1.000000e+00)
  %64 = fptosi double %63 to i32
  %65 = sitofp i32 %64 to double
  %66 = getelementptr inbounds nuw i8, ptr %0, i64 104
  %67 = load double, ptr %66, align 8, !tbaa !35
  %68 = fsub double %67, %65
  %69 = getelementptr inbounds nuw i8, ptr %0, i64 688
  %70 = load double, ptr %69, align 8, !tbaa !38
  %71 = fadd double %70, %68
  store double %71, ptr %69, align 8, !tbaa !38
  store double %65, ptr %66, align 8, !tbaa !35
  %72 = getelementptr inbounds nuw i8, ptr %0, i64 112
  %73 = load double, ptr %72, align 8, !tbaa !36
  %74 = getelementptr inbounds nuw i8, ptr %0, i64 680
  %75 = load double, ptr %74, align 8, !tbaa !37
  %76 = fadd double %73, %75
  store double %76, ptr %74, align 8, !tbaa !37
  store double 0.000000e+00, ptr %72, align 8, !tbaa !36
  %77 = getelementptr inbounds nuw i8, ptr %0, i64 704
  %78 = load double, ptr %77, align 8, !tbaa !44
  %79 = fsub double %78, %.071.lcssa
  %80 = getelementptr inbounds nuw i8, ptr %0, i64 712
  store double %79, ptr %80, align 8, !tbaa !53
  br label %81

81:                                               ; preds = %59, %15
  ret void
}